target datalayout = "e-m:e-p270:32:32-p271:32:32-p272:64:64-i64:64-i128:128-f80:128-n8:16:32:64-S128"
target triple = "x86_64-pc-linux-gnu"

%struct.rb_data_type_struct = type { ptr, %struct.anon, ptr, ptr, i64 }
%struct.anon = type { ptr, ptr, ptr, ptr, [1 x ptr] }
%struct.RTypedData = type { %struct.RBasic, ptr, i64, ptr }
%struct.RBasic = type { i64, i64 }

@eOCSPError = internal global i64 0, align 8
@cOCSPSingleRes = internal global i64 0, align 8
@rb_eRuntimeError = external global i64, align 8
@.str.72 = private unnamed_addr constant [14 x i8] c"ASN1_item_dup\00", align 1
@ossl_ocsp_basicresp_type = internal constant %struct.rb_data_type_struct { ptr @.str.76, %struct.anon { ptr null, ptr @ossl_ocsp_basicresp_free, ptr null, ptr null, [1 x ptr] zeroinitializer }, ptr null, ptr null, i64 33 }, align 8
@.str.75 = private unnamed_addr constant [29 x i8] c"Response wasn't initialized!\00", align 1
@ossl_ocsp_singleresp_type = internal constant %struct.rb_data_type_struct { ptr @.str.88, %struct.anon { ptr null, ptr @ossl_ocsp_singleresp_free, ptr null, ptr null, [1 x ptr] zeroinitializer }, ptr null, ptr null, i64 33 }, align 8
@.str.87 = private unnamed_addr constant [35 x i8] c"SingleResponse wasn't initialized!\00", align 1

; Function Attrs: nounwind sspstrong uwtable
define internal i64 @ossl_ocspsres_new(ptr noundef %0) #0 {
  %2 = alloca ptr, align 8
  %3 = alloca i64, align 8
  store ptr %0, ptr %2, align 8, !tbaa !46
  call void @llvm.lifetime.start.p0(i64 8, ptr %3) #15
  %4 = load i64, ptr @cOCSPSingleRes, align 8, !tbaa !6
  %5 = call i64 @rb_data_typed_object_wrap(i64 noundef %4, ptr noundef null, ptr noundef @ossl_ocsp_singleresp_type)
  store i64 %5, ptr %3, align 8, !tbaa !6
  br label %6

6:                                                ; preds = %1
  %7 = load ptr, ptr %2, align 8, !tbaa !46
  %8 = icmp ne ptr %7, null
  br i1 %8, label %11, label %9

9:                                                ; preds = %6
  %10 = load i64, ptr @rb_eRuntimeError, align 8, !tbaa !6
  call void (i64, ptr, ...) @ossl_raise(i64 noundef %10, ptr noundef @.str.87) #16
  unreachable

11:                                               ; preds = %6
  %12 = load ptr, ptr %2, align 8, !tbaa !46
  %13 = load i64, ptr %3, align 8, !tbaa !6
  %14 = inttoptr i64 %13 to ptr
  %15 = getelementptr inbounds nuw %struct.RTypedData, ptr %14, i32 0, i32 3
  store ptr %12, ptr %15, align 8, !tbaa !13
  br label %16

16:                                               ; preds = %11
  br label %17

17:                                               ; preds = %16
  %18 = load i64, ptr %3, align 8, !tbaa !6
  call void @llvm.lifetime.end.p0(i64 8, ptr %3) #15
  ret i64 %18
}

; Function Attrs: nounwind sspstrong uwtable
define internal i64 @ossl_ocspbres_get_responses(i64 noundef %0) #0 {
  %2 = alloca i64, align 8
  %3 = alloca ptr, align 8
  %4 = alloca i64, align 8
  %5 = alloca i32, align 4
  %6 = alloca i32, align 4
  %7 = alloca ptr, align 8
  %8 = alloca ptr, align 8
  store i64 %0, ptr %2, align 8, !tbaa !6
  call void @llvm.lifetime.start.p0(i64 8, ptr %3) #15
  call void @llvm.lifetime.start.p0(i64 8, ptr %4) #15
  call void @llvm.lifetime.start.p0(i64 4, ptr %5) #15
  call void @llvm.lifetime.start.p0(i64 4, ptr %6) #15
  br label %9

9:                                                ; preds = %1
  %10 = load i64, ptr %2, align 8, !tbaa !6
  %11 = call ptr @rb_check_typeddata(i64 noundef %10, ptr noundef @ossl_ocsp_basicresp_type)
  store ptr %11, ptr %3, align 8, !tbaa !23
  %12 = load ptr, ptr %3, align 8, !tbaa !23
  %13 = icmp ne ptr %12, null
  br i1 %13, label %16, label %14

14:                                               ; preds = %9
  %15 = load i64, ptr @rb_eRuntimeError, align 8, !tbaa !6
  call void (i64, ptr, ...) @ossl_raise(i64 noundef %15, ptr noundef @.str.75) #16
  unreachable

16:                                               ; preds = %9
  br label %17

17:                                               ; preds = %16
  br label %18

18:                                               ; preds = %17
  %19 = load ptr, ptr %3, align 8, !tbaa !23
  %20 = call i32 @OCSP_resp_count(ptr noundef %19)
  store i32 %20, ptr %5, align 4, !tbaa !17
  %21 = load i32, ptr %5, align 4, !tbaa !17
  %22 = sext i32 %21 to i64
  %23 = call i64 @rb_ary_new_capa(i64 noundef %22)
  store i64 %23, ptr %4, align 8, !tbaa !6
  store i32 0, ptr %6, align 4, !tbaa !17
  br label %24

24:                                               ; preds = %44, %18
  %25 = load i32, ptr %6, align 4, !tbaa !17
  %26 = load i32, ptr %5, align 4, !tbaa !17
  %27 = icmp slt i32 %25, %26
  br i1 %27, label %28, label %47

28:                                               ; preds = %24
  call void @llvm.lifetime.start.p0(i64 8, ptr %7) #15
  call void @llvm.lifetime.start.p0(i64 8, ptr %8) #15
  %29 = load ptr, ptr %3, align 8, !tbaa !23
  %30 = load i32, ptr %6, align 4, !tbaa !17
  %31 = call ptr @OCSP_resp_get0(ptr noundef %29, i32 noundef %30)
  store ptr %31, ptr %7, align 8, !tbaa !46
  %32 = call ptr @OCSP_SINGLERESP_it()
  %33 = load ptr, ptr %7, align 8, !tbaa !46
  %34 = call ptr @ASN1_item_dup(ptr noundef %32, ptr noundef %33)
  store ptr %34, ptr %8, align 8, !tbaa !46
  %35 = load ptr, ptr %8, align 8, !tbaa !46
  %36 = icmp ne ptr %35, null
  br i1 %36, label %39, label %37

37:                                               ; preds = %28
  %38 = load i64, ptr @eOCSPError, align 8, !tbaa !6
  call void (i64, ptr, ...) @ossl_raise(i64 noundef %38, ptr noundef @.str.72) #16
  unreachable

39:                                               ; preds = %28
  %40 = load i64, ptr %4, align 8, !tbaa !6
  %41 = load ptr, ptr %8, align 8, !tbaa !46
  %42 = call i64 @ossl_ocspsres_new(ptr noundef %41)
  %43 = call i64 @rb_ary_push(i64 noundef %40, i64 noundef %42)
  call void @llvm.lifetime.end.p0(i64 8, ptr %8) #15
  call void @llvm.lifetime.end.p0(i64 8, ptr %7) #15
  br label %44

44:                                               ; preds = %39
  %45 = load i32, ptr %6, align 4, !tbaa !17
  %46 = add nsw i32 %45, 1
  store i32 %46, ptr %6, align 4, !tbaa !17
  br label %24, !llvm.loop !53

47:                                               ; preds = %24
  %48 = load i64, ptr %4, align 8, !tbaa !6
  call void @llvm.lifetime.end.p0(i64 4, ptr %6) #15
  call void @llvm.lifetime.end.p0(i64 4, ptr %5) #15
  call void @llvm.lifetime.end.p0(i64 8, ptr %4) #15
  call void @llvm.lifetime.end.p0(i64 8, ptr %3) #15
  ret i64 %48
}