; Function Attrs: nounwind sspstrong uwtable
define internal i64 @ossl_ocspbres_get_responses(i64 noundef %0) #0 {
  %2 = tail call ptr @rb_check_typeddata(i64 noundef %0, ptr noundef nonnull @ossl_ocsp_basicresp_type) #5
  %.not = icmp eq ptr %2, null
  br i1 %.not, label %3, label %5

3:                                                ; preds = %1
  %4 = load i64, ptr @rb_eRuntimeError, align 8, !tbaa !6
  tail call void (i64, ptr, ...) @ossl_raise(i64 noundef %4, ptr noundef nonnull @.str.75) #6
  unreachable

5:                                                ; preds = %1
  %6 = tail call i32 @OCSP_resp_count(ptr noundef nonnull %2) #5
  %7 = sext i32 %6 to i64
  %8 = tail call i64 @rb_ary_new_capa(i64 noundef %7) #5
  %9 = icmp sgt i32 %6, 0
  br i1 %9, label %.lr.ph, label %._crit_edge

.lr.ph:                                           ; preds = %5, %15
  %.016 = phi i32 [ %21, %15 ], [ 0, %5 ]
  %10 = tail call ptr @OCSP_resp_get0(ptr noundef nonnull %2, i32 noundef %.016) #5
  %11 = tail call ptr @OCSP_SINGLERESP_it() #5
  %12 = tail call ptr @ASN1_item_dup(ptr noundef %11, ptr noundef %10) #5
  %.not15 = icmp eq ptr %12, null
  br i1 %.not15, label %13, label %15

13:                                               ; preds = %.lr.ph
  %14 = load i64, ptr @eOCSPError, align 8, !tbaa !6
  tail call void (i64, ptr, ...) @ossl_raise(i64 noundef %14, ptr noundef nonnull @.str.72) #6
  unreachable

15:                                               ; preds = %.lr.ph
  %16 = load i64, ptr @cOCSPSingleRes, align 8, !tbaa !6
  %17 = tail call i64 @rb_data_typed_object_wrap(i64 noundef %16, ptr noundef null, ptr noundef nonnull @ossl_ocsp_singleresp_type) #5
  %18 = inttoptr i64 %17 to ptr
  %19 = getelementptr inbounds nuw i8, ptr %18, i64 32
  store ptr %12, ptr %19, align 8, !tbaa !10
  %20 = tail call i64 @rb_ary_push(i64 noundef %8, i64 noundef %17) #5
  %21 = add nuw nsw i32 %.016, 1
  %exitcond.not = icmp eq i32 %21, %6
  br i1 %exitcond.not, label %._crit_edge, label %.lr.ph, !llvm.loop !66

._crit_edge:                                      ; preds = %15, %5
  ret i64 %8
}